target datalayout = "e-m:e-p270:32:32-p271:32:32-p272:64:64-i64:64-i128:128-f80:128-n8:16:32:64-S128"
target triple = "x86_64-pc-linux-gnu"

%"class.cv::Mat" = type { i32, i32, i32, i32, ptr, ptr, ptr, ptr, ptr, ptr, %"struct.cv::MatSize", %"struct.cv::MatStep" }
%"struct.cv::MatSize" = type { ptr }
%"struct.cv::MatStep" = type { ptr, [2 x i64] }

; Function Attrs: inlinehint mustprogress nounwind uwtable
define linkonce_odr hidden noundef ptr @_ZN2cv3Mat3ptrIhEEPT_ii(ptr noundef nonnull align 8 dereferenceable(96) %0, i32 noundef %1, i32 noundef %2) #14 comdat align 2 {
  %4 = alloca ptr, align 8
  %5 = alloca i32, align 4
  %6 = alloca i32, align 4
  store ptr %0, ptr %4, align 8, !tbaa !159
  store i32 %1, ptr %5, align 4, !tbaa !48
  store i32 %2, ptr %6, align 4, !tbaa !48
  %7 = load ptr, ptr %4, align 8
  %8 = getelementptr inbounds nuw %"class.cv::Mat", ptr %7, i32 0, i32 4
  %9 = load ptr, ptr %8, align 8, !tbaa !161
  %10 = load i32, ptr %5, align 4, !tbaa !48
  %11 = sext i32 %10 to i64
  %12 = getelementptr inbounds nuw %"class.cv::Mat", ptr %7, i32 0, i32 11
  %13 = getelementptr inbounds nuw %"struct.cv::MatStep", ptr %12, i32 0, i32 0
  %14 = load ptr, ptr %13, align 8, !tbaa !162
  %15 = getelementptr inbounds i64, ptr %14, i64 0
  %16 = load i64, ptr %15, align 8, !tbaa !54
  %17 = mul i64 %11, %16
  %18 = getelementptr inbounds nuw i8, ptr %9, i64 %17
  %19 = load i32, ptr %6, align 4, !tbaa !48
  %20 = sext i32 %19 to i64
  %21 = getelementptr inbounds nuw %"class.cv::Mat", ptr %7, i32 0, i32 11
  %22 = getelementptr inbounds nuw %"struct.cv::MatStep", ptr %21, i32 0, i32 0
  %23 = load ptr, ptr %22, align 8, !tbaa !162
  %24 = getelementptr inbounds i64, ptr %23, i64 1
  %25 = load i64, ptr %24, align 8, !tbaa !54
  %26 = mul i64 %20, %25
  %27 = getelementptr inbounds nuw i8, ptr %18, i64 %26
  ret ptr %27
}

; Function Attrs: mustprogress uwtable
define void @_ZN2cv8freetype13FreeType2Impl18putPixel_8UC1_monoERNS_3MatEiiPKh(ptr noundef nonnull align 8 dereferenceable(88) %0, ptr noundef nonnull align 8 dereferenceable(96) %1, i32 noundef %2, i32 noundef %3, ptr noundef %4) #4 align 2 {
  %6 = alloca ptr, align 8
  %7 = alloca ptr, align 8
  %8 = alloca i32, align 4
  %9 = alloca i32, align 4
  %10 = alloca ptr, align 8
  %11 = alloca ptr, align 8
  store ptr %0, ptr %6, align 8, !tbaa !3
  store ptr %1, ptr %7, align 8, !tbaa !159
  store i32 %2, ptr %8, align 4, !tbaa !48
  store i32 %3, ptr %9, align 4, !tbaa !48
  store ptr %4, ptr %10, align 8, !tbaa !72
  call void @llvm.lifetime.start.p0(i64 8, ptr %11) #3
  %12 = load ptr, ptr %7, align 8, !tbaa !159
  %13 = load i32, ptr %8, align 4, !tbaa !48
  %14 = load i32, ptr %9, align 4, !tbaa !48
  %15 = call noundef ptr @_ZN2cv3Mat3ptrIhEEPT_ii(ptr noundef nonnull align 8 dereferenceable(96) %12, i32 noundef %13, i32 noundef %14)
  store ptr %15, ptr %11, align 8, !tbaa !72
  %16 = load ptr, ptr %10, align 8, !tbaa !72
  %17 = getelementptr inbounds i8, ptr %16, i64 0
  %18 = load i8, ptr %17, align 1, !tbaa !101
  %19 = load ptr, ptr %11, align 8, !tbaa !72
  store i8 %18, ptr %19, align 1, !tbaa !101
  call void @llvm.lifetime.end.p0(i64 8, ptr %11) #3
  ret void
}